; Function Attrs: nounwind uwtable
define zeroext range(i8 0, 2) i8 @l_Std_Time_PlainDateTime_inLeapYear(ptr noundef readonly captures(none) %0) local_unnamed_addr #1 {
  %2 = getelementptr inbounds nuw i8, ptr %0, i64 8
  %3 = load ptr, ptr %2, align 8, !tbaa !5
  %4 = getelementptr inbounds nuw i8, ptr %3, i64 8
  %5 = load ptr, ptr %4, align 8, !tbaa !5
  %6 = load ptr, ptr @l_Std_Time_PlainDateTime_ofTimestampAssumingUTC___closed__11, align 8, !tbaa !5
  %7 = ptrtoint ptr %5 to i64
  %8 = and i64 %7, 1
  %.not.i29 = icmp eq i64 %8, 0
  br i1 %.not.i29, label %.critedge.i, label %9, !prof !4

9:                                                ; preds = %1
  %10 = ptrtoint ptr %6 to i64
  %11 = and i64 %10, 1
  %.not11.i = icmp eq i64 %11, 0
  br i1 %.not11.i, label %.critedge.i, label %12, !prof !4

12:                                               ; preds = %9
  %13 = shl i64 %10, 31
  %14 = icmp ult i64 %13, 4294967296
  br i1 %14, label %lean_int_mod.exit, label %15

15:                                               ; preds = %12
  %16 = ashr i64 %13, 32
  %17 = shl i64 %7, 31
  %18 = ashr i64 %17, 32
  %19 = srem i64 %18, %16
  %20 = shl nsw i64 %19, 1
  %21 = and i64 %20, 8589934590
  %22 = or disjoint i64 %21, 1
  %23 = inttoptr i64 %22 to ptr
  br label %lean_int_mod.exit

.critedge.i:                                      ; preds = %9, %1
  %24 = tail call ptr @lean_int_big_mod(ptr noundef %5, ptr noundef %6) #5
  br label %lean_int_mod.exit

lean_int_mod.exit:                                ; preds = %12, %15, %.critedge.i
  %.1.i = phi ptr [ %24, %.critedge.i ], [ %5, %12 ], [ %23, %15 ]
  %25 = load ptr, ptr @l_Std_Time_instInhabitedPlainDateTime___closed__1, align 8, !tbaa !5
  %26 = ptrtoint ptr %.1.i to i64
  %27 = ptrtoint ptr %25 to i64
  %28 = and i64 %26, 1
  %29 = and i64 %28, %27
  %or.cond.not.i.i = icmp eq i64 %29, 0
  br i1 %or.cond.not.i.i, label %.critedge.i.i, label %30, !prof !15

30:                                               ; preds = %lean_int_mod.exit
  %31 = icmp eq ptr %.1.i, %25
  br label %lean_int_dec_eq.exit

.critedge.i.i:                                    ; preds = %lean_int_mod.exit
  %32 = tail call zeroext i1 @lean_int_big_eq(ptr noundef %.1.i, ptr noundef %25) #5
  br label %lean_int_dec_eq.exit

lean_int_dec_eq.exit:                             ; preds = %30, %.critedge.i.i
  %.0.i.i = phi i1 [ %31, %30 ], [ %32, %.critedge.i.i ]
  %.not = icmp eq i64 %28, 0
  br i1 %.not, label %33, label %lean_dec.exit24

33:                                               ; preds = %lean_int_dec_eq.exit
  %34 = load i32, ptr %.1.i, align 4, !tbaa !9
  %35 = icmp sgt i32 %34, 1
  br i1 %35, label %36, label %38, !prof !12

36:                                               ; preds = %33
  %37 = add nsw i32 %34, -1
  store i32 %37, ptr %.1.i, align 4, !tbaa !9
  br label %lean_dec.exit24

38:                                               ; preds = %33
  %.not.i = icmp eq i32 %34, 0
  br i1 %.not.i, label %lean_dec.exit24, label %39

39:                                               ; preds = %38
  tail call void @lean_dec_ref_cold(ptr noundef nonnull %.1.i) #5
  br label %lean_dec.exit24

lean_dec.exit24:                                  ; preds = %39, %38, %36, %lean_int_dec_eq.exit
  br i1 %.0.i.i, label %40, label %lean_dec.exit

40:                                               ; preds = %lean_dec.exit24
  %41 = load ptr, ptr @l_Std_Time_PlainDateTime_ofTimestampAssumingUTC___closed__7, align 8, !tbaa !5
  br i1 %.not.i29, label %.critedge.i33, label %42, !prof !4

42:                                               ; preds = %40
  %43 = ptrtoint ptr %41 to i64
  %44 = and i64 %43, 1
  %.not11.i31 = icmp eq i64 %44, 0
  br i1 %.not11.i31, label %.critedge.i33, label %45, !prof !4

45:                                               ; preds = %42
  %46 = shl i64 %43, 31
  %47 = icmp ult i64 %46, 4294967296
  br i1 %47, label %lean_int_mod.exit34, label %48

48:                                               ; preds = %45
  %49 = ashr i64 %46, 32
  %50 = shl i64 %7, 31
  %51 = ashr i64 %50, 32
  %52 = srem i64 %51, %49
  %53 = shl nsw i64 %52, 1
  %54 = and i64 %53, 8589934590
  %55 = or disjoint i64 %54, 1
  %56 = inttoptr i64 %55 to ptr
  br label %lean_int_mod.exit34

.critedge.i33:                                    ; preds = %42, %40
  %57 = tail call ptr @lean_int_big_mod(ptr noundef %5, ptr noundef %41) #5
  br label %lean_int_mod.exit34

lean_int_mod.exit34:                              ; preds = %45, %48, %.critedge.i33
  %.1.i32 = phi ptr [ %57, %.critedge.i33 ], [ %5, %45 ], [ %56, %48 ]
  %58 = ptrtoint ptr %.1.i32 to i64
  %59 = and i64 %58, 1
  %60 = and i64 %59, %27
  %or.cond.not.i.i35 = icmp eq i64 %60, 0
  br i1 %or.cond.not.i.i35, label %.critedge.i.i37, label %61, !prof !15

61:                                               ; preds = %lean_int_mod.exit34
  %62 = icmp eq ptr %.1.i32, %25
  br label %lean_int_dec_eq.exit38

.critedge.i.i37:                                  ; preds = %lean_int_mod.exit34
  %63 = tail call zeroext i1 @lean_int_big_eq(ptr noundef %.1.i32, ptr noundef %25) #5
  br label %lean_int_dec_eq.exit38

lean_int_dec_eq.exit38:                           ; preds = %61, %.critedge.i.i37
  %.0.i.i36 = phi i1 [ %62, %61 ], [ %63, %.critedge.i.i37 ]
  %64 = zext i1 %.0.i.i36 to i8
  %.not48 = icmp eq i64 %59, 0
  br i1 %.not48, label %65, label %lean_dec.exit23

65:                                               ; preds = %lean_int_dec_eq.exit38
  %66 = load i32, ptr %.1.i32, align 4, !tbaa !9
  %67 = icmp sgt i32 %66, 1
  br i1 %67, label %68, label %70, !prof !12

68:                                               ; preds = %65
  %69 = add nsw i32 %66, -1
  store i32 %69, ptr %.1.i32, align 4, !tbaa !9
  br label %lean_dec.exit23

70:                                               ; preds = %65
  %.not.i25 = icmp eq i32 %66, 0
  br i1 %.not.i25, label %lean_dec.exit23, label %71

71:                                               ; preds = %70
  tail call void @lean_dec_ref_cold(ptr noundef nonnull %.1.i32) #5
  br label %lean_dec.exit23

lean_dec.exit23:                                  ; preds = %71, %70, %68, %lean_int_dec_eq.exit38
  %72 = tail call zeroext i8 @l_instDecidableNot___rarg(i8 noundef zeroext %64) #5
  %73 = icmp eq i8 %72, 0
  br i1 %73, label %74, label %lean_dec.exit

74:                                               ; preds = %lean_dec.exit23
  %75 = load ptr, ptr @l_Std_Time_PlainDateTime_ofTimestampAssumingUTC___closed__3, align 8, !tbaa !5
  br i1 %.not.i29, label %.critedge.i42, label %76, !prof !4

76:                                               ; preds = %74
  %77 = ptrtoint ptr %75 to i64
  %78 = and i64 %77, 1
  %.not11.i40 = icmp eq i64 %78, 0
  br i1 %.not11.i40, label %.critedge.i42, label %79, !prof !4

79:                                               ; preds = %76
  %80 = shl i64 %77, 31
  %81 = icmp ult i64 %80, 4294967296
  br i1 %81, label %lean_int_mod.exit43, label %82

82:                                               ; preds = %79
  %83 = ashr i64 %80, 32
  %84 = shl i64 %7, 31
  %85 = ashr i64 %84, 32
  %86 = srem i64 %85, %83
  %87 = shl nsw i64 %86, 1
  %88 = and i64 %87, 8589934590
  %89 = or disjoint i64 %88, 1
  %90 = inttoptr i64 %89 to ptr
  br label %lean_int_mod.exit43

.critedge.i42:                                    ; preds = %76, %74
  %91 = tail call ptr @lean_int_big_mod(ptr noundef %5, ptr noundef %75) #5
  br label %lean_int_mod.exit43

lean_int_mod.exit43:                              ; preds = %79, %82, %.critedge.i42
  %.1.i41 = phi ptr [ %91, %.critedge.i42 ], [ %5, %79 ], [ %90, %82 ]
  %92 = ptrtoint ptr %.1.i41 to i64
  %93 = and i64 %92, 1
  %94 = and i64 %93, %27
  %or.cond.not.i.i44 = icmp eq i64 %94, 0
  br i1 %or.cond.not.i.i44, label %.critedge.i.i46, label %95, !prof !15

95:                                               ; preds = %lean_int_mod.exit43
  %96 = icmp eq ptr %.1.i41, %25
  br label %lean_int_dec_eq.exit47

.critedge.i.i46:                                  ; preds = %lean_int_mod.exit43
  %97 = tail call zeroext i1 @lean_int_big_eq(ptr noundef %.1.i41, ptr noundef %25) #5
  br label %lean_int_dec_eq.exit47

lean_int_dec_eq.exit47:                           ; preds = %95, %.critedge.i.i46
  %.0.i.i45 = phi i1 [ %96, %95 ], [ %97, %.critedge.i.i46 ]
  %.not49 = icmp eq i64 %93, 0
  br i1 %.not49, label %98, label %lean_dec.exit

98:                                               ; preds = %lean_int_dec_eq.exit47
  %99 = load i32, ptr %.1.i41, align 4, !tbaa !9
  %100 = icmp sgt i32 %99, 1
  br i1 %100, label %101, label %103, !prof !12

101:                                              ; preds = %98
  %102 = add nsw i32 %99, -1
  store i32 %102, ptr %.1.i41, align 4, !tbaa !9
  br label %lean_dec.exit

103:                                              ; preds = %98
  %.not.i27 = icmp eq i32 %99, 0
  br i1 %.not.i27, label %lean_dec.exit, label %104

104:                                              ; preds = %103
  tail call void @lean_dec_ref_cold(ptr noundef nonnull %.1.i41) #5
  br label %lean_dec.exit

lean_dec.exit:                                    ; preds = %lean_int_dec_eq.exit47, %101, %103, %104, %lean_dec.exit23, %lean_dec.exit24
  %.0.shrunk = phi i1 [ false, %lean_dec.exit24 ], [ true, %lean_dec.exit23 ], [ %.0.i.i45, %104 ], [ %.0.i.i45, %103 ], [ %.0.i.i45, %101 ], [ %.0.i.i45, %lean_int_dec_eq.exit47 ]
  %.0 = zext i1 %.0.shrunk to i8
  ret i8 %.0
}